; Function Attrs: mustprogress nounwind uwtable
define internal void @_ZNK12_GLOBAL__N_112TypeArgument30writeTemplateInstantiationArgsERN4llvm11raw_ostreamE(ptr noundef nonnull align 8 dereferenceable(128) %0, ptr noundef nonnull align 8 dereferenceable(48) %1) unnamed_addr #0 align 2 {
  %3 = getelementptr inbounds nuw i8, ptr %1, i64 24
  %4 = load ptr, ptr %3, align 8
  %5 = getelementptr inbounds nuw i8, ptr %1, i64 32
  %6 = load ptr, ptr %5, align 8
  %7 = ptrtoint ptr %4 to i64
  %8 = ptrtoint ptr %6 to i64
  %9 = sub i64 %7, %8
  %10 = icmp ult i64 %9, 8
  br i1 %10, label %11, label %13

11:                                               ; preds = %2
  %12 = tail call noundef nonnull align 8 dereferenceable(48) ptr @_ZN4llvm11raw_ostream5writeEPKcm(ptr noundef nonnull align 8 dereferenceable(48) %1, ptr noundef nonnull @.str.707, i64 noundef 8) #22
  br label %_ZN4llvm11raw_ostreamlsEPKc.exit

13:                                               ; preds = %2
  store i64 8391171792419251572, ptr %6, align 1
  %14 = load ptr, ptr %5, align 8
  %15 = getelementptr inbounds i8, ptr %14, i64 8
  store ptr %15, ptr %5, align 8
  br label %_ZN4llvm11raw_ostreamlsEPKc.exit

_ZN4llvm11raw_ostreamlsEPKc.exit:                 ; preds = %11, %13
  %.0.i.i = phi ptr [ %12, %11 ], [ %1, %13 ]
  %16 = getelementptr inbounds nuw i8, ptr %0, i64 40
  %17 = tail call noundef ptr @_ZNKSt7__cxx1112basic_stringIcSt11char_traitsIcESaIcEE4dataEv(ptr noundef nonnull align 8 dereferenceable(32) %16) #22
  %18 = tail call noundef i64 @_ZNKSt7__cxx1112basic_stringIcSt11char_traitsIcESaIcEE6lengthEv(ptr noundef nonnull align 8 dereferenceable(32) %16) #22
  %19 = getelementptr inbounds nuw i8, ptr %.0.i.i, i64 24
  %20 = load ptr, ptr %19, align 8
  %21 = getelementptr inbounds nuw i8, ptr %.0.i.i, i64 32
  %22 = load ptr, ptr %21, align 8
  %23 = ptrtoint ptr %20 to i64
  %24 = ptrtoint ptr %22 to i64
  %25 = sub i64 %23, %24
  %26 = icmp ugt i64 %18, %25
  br i1 %26, label %27, label %29

27:                                               ; preds = %_ZN4llvm11raw_ostreamlsEPKc.exit
  %28 = tail call noundef nonnull align 8 dereferenceable(48) ptr @_ZN4llvm11raw_ostream5writeEPKcm(ptr noundef nonnull align 8 dereferenceable(48) %.0.i.i, ptr noundef %17, i64 noundef %18) #22
  br label %_ZN4llvm11raw_ostreamlsENS_9StringRefE.exit

29:                                               ; preds = %_ZN4llvm11raw_ostreamlsEPKc.exit
  %.not.i = icmp eq i64 %18, 0
  br i1 %.not.i, label %_ZN4llvm11raw_ostreamlsENS_9StringRefE.exit, label %30

30:                                               ; preds = %29
  tail call void @llvm.memcpy.p0.p0.i64(ptr align 1 %22, ptr align 1 %17, i64 %18, i1 false)
  %31 = load ptr, ptr %21, align 8
  %32 = getelementptr inbounds i8, ptr %31, i64 %18
  store ptr %32, ptr %21, align 8
  br label %_ZN4llvm11raw_ostreamlsENS_9StringRefE.exit

_ZN4llvm11raw_ostreamlsENS_9StringRefE.exit:      ; preds = %27, %29, %30
  ret void
}